target datalayout = "e-m:e-p270:32:32-p271:32:32-p272:64:64-i64:64-i128:128-f80:128-n8:16:32:64-S128"
target triple = "x86_64-pc-linux-gnu"

%class.DCmd = type <{ ptr, ptr, i8, [7 x i8] }>

@.str.44 = private unnamed_addr constant [9 x i8] c"Options:\00", align 1
@.str.45 = private unnamed_addr constant [1 x i8] zeroinitializer, align 1
@.str.46 = private unnamed_addr constant [83 x i8] c"  globalbuffercount   (Optional) Number of global buffers. This option is a legacy\00", align 1
@.str.47 = private unnamed_addr constant [85 x i8] c"                      option: change the memorysize parameter to alter the number of\00", align 1
@.str.48 = private unnamed_addr constant [85 x i8] c"                      global buffers. This value cannot be changed once JFR has been\00", align 1
@.str.49 = private unnamed_addr constant [80 x i8] c"                      initialized. (STRING, default determined by the value for\00", align 1
@.str.50 = private unnamed_addr constant [34 x i8] c"                      memorysize)\00", align 1
@.str.51 = private unnamed_addr constant [88 x i8] c"  globalbuffersize    (Optional) Size of the global buffers, in bytes. This option is a\00", align 1
@.str.52 = private unnamed_addr constant [87 x i8] c"                      legacy option: change the memorysize parameter to alter the size\00", align 1
@.str.53 = private unnamed_addr constant [87 x i8] c"                      of the global buffers. This value cannot be changed once JFR has\00", align 1
@.str.54 = private unnamed_addr constant [85 x i8] c"                      been initialized. (STRING, default determined by the value for\00", align 1
@.str.55 = private unnamed_addr constant [86 x i8] c"  maxchunksize        (Optional) Maximum size of an individual data chunk in bytes if\00", align 1
@.str.56 = private unnamed_addr constant [80 x i8] c"                      one of the following suffixes is not used: 'm' or 'M' for\00", align 1
@.str.57 = private unnamed_addr constant [82 x i8] c"                      megabytes OR 'g' or 'G' for gigabytes. This value cannot be\00", align 1
@.str.58 = private unnamed_addr constant [75 x i8] c"                      changed once JFR has been initialized. (STRING, 12M)\00", align 1
@.str.59 = private unnamed_addr constant [87 x i8] c"  memorysize          (Optional) Overall memory size, in bytes if one of the following\00", align 1
@.str.60 = private unnamed_addr constant [87 x i8] c"                      suffixes is not used: 'm' or 'M' for megabytes OR 'g' or 'G' for\00", align 1
@.str.61 = private unnamed_addr constant [80 x i8] c"                      gigabytes. This value cannot be changed once JFR has been\00", align 1
@.str.62 = private unnamed_addr constant [49 x i8] c"                      initialized. (STRING, 10M)\00", align 1
@.str.63 = private unnamed_addr constant [88 x i8] c"  repositorypath      (Optional) Path to the location where recordings are stored until\00", align 1
@.str.64 = private unnamed_addr constant [81 x i8] c"                      they are written to a permanent file. (STRING, The default\00", align 1
@.str.65 = private unnamed_addr constant [87 x i8] c"                      location is the temporary directory for the operating system. On\00", align 1
@.str.66 = private unnamed_addr constant [83 x i8] c"                      Linux operating systems, the temporary directory is /tmp. On\00", align 1
@.str.67 = private unnamed_addr constant [79 x i8] c"                      Windows, the temporary directory is specified by the TMP\00", align 1
@.str.68 = private unnamed_addr constant [44 x i8] c"                      environment variable)\00", align 1
@.str.69 = private unnamed_addr constant [88 x i8] c"  dumppath            (Optional) Path to the location where a recording file is written\00", align 1
@.str.70 = private unnamed_addr constant [82 x i8] c"                      in case the VM runs into a critical error, such as a system\00", align 1
@.str.71 = private unnamed_addr constant [85 x i8] c"                      crash. (STRING, The default location is the current directory)\00", align 1
@.str.72 = private unnamed_addr constant [82 x i8] c"  stackdepth          (Optional) Stack depth for stack traces. Setting this value\00", align 1
@.str.73 = private unnamed_addr constant [77 x i8] c"                      greater than the default of 64 may cause a performance\00", align 1
@.str.74 = private unnamed_addr constant [82 x i8] c"                      degradation. This value cannot be changed once JFR has been\00", align 1
@.str.75 = private unnamed_addr constant [46 x i8] c"                      initialized. (LONG, 64)\00", align 1
@.str.76 = private unnamed_addr constant [86 x i8] c"  thread_buffer_size  (Optional) Local buffer size for each thread in bytes if one of\00", align 1
@.str.77 = private unnamed_addr constant [86 x i8] c"                      the following suffixes is not used: 'k' or 'K' for kilobytes or\00", align 1
@.str.78 = private unnamed_addr constant [87 x i8] c"                      'm' or 'M' for megabytes. Overriding this parameter could reduce\00", align 1
@.str.79 = private unnamed_addr constant [87 x i8] c"                      performance and is not recommended. This value cannot be changed\00", align 1
@.str.80 = private unnamed_addr constant [66 x i8] c"                      once JFR has been initialized. (STRING, 8k)\00", align 1
@.str.81 = private unnamed_addr constant [88 x i8] c"  preserve-repository (Optional) Preserve files stored in the disk repository after the\00", align 1
@.str.82 = private unnamed_addr constant [72 x i8] c"                      Java Virtual Machine has exited. (BOOLEAN, false)\00", align 1
@.str.83 = private unnamed_addr constant [67 x i8] c"Options must be specified using the <key> or <key>=<value> syntax.\00", align 1
@.str.84 = private unnamed_addr constant [15 x i8] c"Example usage:\00", align 1
@.str.85 = private unnamed_addr constant [28 x i8] c" $ jcmd <pid> JFR.configure\00", align 1
@.str.86 = private unnamed_addr constant [54 x i8] c" $ jcmd <pid> JFR.configure repositorypath=/temporary\00", align 1
@.str.87 = private unnamed_addr constant [43 x i8] c" $ jcmd <pid> JFR.configure stackdepth=256\00", align 1
@.str.88 = private unnamed_addr constant [44 x i8] c" $ jcmd <pid> JFR.configure memorysize=100M\00", align 1

; Function Attrs: mustprogress nounwind uwtable
define linkonce_odr hidden noundef ptr @_ZNK4DCmd6outputEv(ptr noundef nonnull align 8 dereferenceable(17) %0) #1 comdat align 2 {
  %2 = alloca ptr, align 8
  store ptr %0, ptr %2, align 8
  %3 = load ptr, ptr %2, align 8
  %4 = getelementptr inbounds %class.DCmd, ptr %3, i32 0, i32 1
  %5 = load ptr, ptr %4, align 8
  ret ptr %5
}

; Function Attrs: mustprogress nounwind uwtable
define hidden void @_ZNK30JfrConfigureFlightRecorderDCmd10print_helpEPKc(ptr noundef nonnull align 8 dereferenceable(729) %0, ptr noundef %1) unnamed_addr #1 align 2 {
  %3 = alloca ptr, align 8
  %4 = alloca ptr, align 8
  %5 = alloca ptr, align 8
  store ptr %0, ptr %3, align 8
  store ptr %1, ptr %4, align 8
  %6 = load ptr, ptr %3, align 8
  %7 = call noundef ptr @_ZNK4DCmd6outputEv(ptr noundef nonnull align 8 dereferenceable(17) %6)
  store ptr %7, ptr %5, align 8
  %8 = load ptr, ptr %5, align 8
  call void (ptr, ptr, ...) @_ZN12outputStream8print_crEPKcz(ptr noundef nonnull align 8 dereferenceable(56) %8, ptr noundef @.str.44)
  %9 = load ptr, ptr %5, align 8
  call void (ptr, ptr, ...) @_ZN12outputStream8print_crEPKcz(ptr noundef nonnull align 8 dereferenceable(56) %9, ptr noundef @.str.45)
  %10 = load ptr, ptr %5, align 8
  call void (ptr, ptr, ...) @_ZN12outputStream8print_crEPKcz(ptr noundef nonnull align 8 dereferenceable(56) %10, ptr noundef @.str.46)
  %11 = load ptr, ptr %5, align 8
  call void (ptr, ptr, ...) @_ZN12outputStream8print_crEPKcz(ptr noundef nonnull align 8 dereferenceable(56) %11, ptr noundef @.str.47)
  %12 = load ptr, ptr %5, align 8
  call void (ptr, ptr, ...) @_ZN12outputStream8print_crEPKcz(ptr noundef nonnull align 8 dereferenceable(56) %12, ptr noundef @.str.48)
  %13 = load ptr, ptr %5, align 8
  call void (ptr, ptr, ...) @_ZN12outputStream8print_crEPKcz(ptr noundef nonnull align 8 dereferenceable(56) %13, ptr noundef @.str.49)
  %14 = load ptr, ptr %5, align 8
  call void (ptr, ptr, ...) @_ZN12outputStream8print_crEPKcz(ptr noundef nonnull align 8 dereferenceable(56) %14, ptr noundef @.str.50)
  %15 = load ptr, ptr %5, align 8
  call void (ptr, ptr, ...) @_ZN12outputStream8print_crEPKcz(ptr noundef nonnull align 8 dereferenceable(56) %15, ptr noundef @.str.45)
  %16 = load ptr, ptr %5, align 8
  call void (ptr, ptr, ...) @_ZN12outputStream8print_crEPKcz(ptr noundef nonnull align 8 dereferenceable(56) %16, ptr noundef @.str.51)
  %17 = load ptr, ptr %5, align 8
  call void (ptr, ptr, ...) @_ZN12outputStream8print_crEPKcz(ptr noundef nonnull align 8 dereferenceable(56) %17, ptr noundef @.str.52)
  %18 = load ptr, ptr %5, align 8
  call void (ptr, ptr, ...) @_ZN12outputStream8print_crEPKcz(ptr noundef nonnull align 8 dereferenceable(56) %18, ptr noundef @.str.53)
  %19 = load ptr, ptr %5, align 8
  call void (ptr, ptr, ...) @_ZN12outputStream8print_crEPKcz(ptr noundef nonnull align 8 dereferenceable(56) %19, ptr noundef @.str.54)
  %20 = load ptr, ptr %5, align 8
  call void (ptr, ptr, ...) @_ZN12outputStream8print_crEPKcz(ptr noundef nonnull align 8 dereferenceable(56) %20, ptr noundef @.str.50)
  %21 = load ptr, ptr %5, align 8
  call void (ptr, ptr, ...) @_ZN12outputStream8print_crEPKcz(ptr noundef nonnull align 8 dereferenceable(56) %21, ptr noundef @.str.45)
  %22 = load ptr, ptr %5, align 8
  call void (ptr, ptr, ...) @_ZN12outputStream8print_crEPKcz(ptr noundef nonnull align 8 dereferenceable(56) %22, ptr noundef @.str.55)
  %23 = load ptr, ptr %5, align 8
  call void (ptr, ptr, ...) @_ZN12outputStream8print_crEPKcz(ptr noundef nonnull align 8 dereferenceable(56) %23, ptr noundef @.str.56)
  %24 = load ptr, ptr %5, align 8
  call void (ptr, ptr, ...) @_ZN12outputStream8print_crEPKcz(ptr noundef nonnull align 8 dereferenceable(56) %24, ptr noundef @.str.57)
  %25 = load ptr, ptr %5, align 8
  call void (ptr, ptr, ...) @_ZN12outputStream8print_crEPKcz(ptr noundef nonnull align 8 dereferenceable(56) %25, ptr noundef @.str.58)
  %26 = load ptr, ptr %5, align 8
  call void (ptr, ptr, ...) @_ZN12outputStream8print_crEPKcz(ptr noundef nonnull align 8 dereferenceable(56) %26, ptr noundef @.str.45)
  %27 = load ptr, ptr %5, align 8
  call void (ptr, ptr, ...) @_ZN12outputStream8print_crEPKcz(ptr noundef nonnull align 8 dereferenceable(56) %27, ptr noundef @.str.59)
  %28 = load ptr, ptr %5, align 8
  call void (ptr, ptr, ...) @_ZN12outputStream8print_crEPKcz(ptr noundef nonnull align 8 dereferenceable(56) %28, ptr noundef @.str.60)
  %29 = load ptr, ptr %5, align 8
  call void (ptr, ptr, ...) @_ZN12outputStream8print_crEPKcz(ptr noundef nonnull align 8 dereferenceable(56) %29, ptr noundef @.str.61)
  %30 = load ptr, ptr %5, align 8
  call void (ptr, ptr, ...) @_ZN12outputStream8print_crEPKcz(ptr noundef nonnull align 8 dereferenceable(56) %30, ptr noundef @.str.62)
  %31 = load ptr, ptr %5, align 8
  call void (ptr, ptr, ...) @_ZN12outputStream8print_crEPKcz(ptr noundef nonnull align 8 dereferenceable(56) %31, ptr noundef @.str.45)
  %32 = load ptr, ptr %5, align 8
  call void (ptr, ptr, ...) @_ZN12outputStream8print_crEPKcz(ptr noundef nonnull align 8 dereferenceable(56) %32, ptr noundef @.str.63)
  %33 = load ptr, ptr %5, align 8
  call void (ptr, ptr, ...) @_ZN12outputStream8print_crEPKcz(ptr noundef nonnull align 8 dereferenceable(56) %33, ptr noundef @.str.64)
  %34 = load ptr, ptr %5, align 8
  call void (ptr, ptr, ...) @_ZN12outputStream8print_crEPKcz(ptr noundef nonnull align 8 dereferenceable(56) %34, ptr noundef @.str.65)
  %35 = load ptr, ptr %5, align 8
  call void (ptr, ptr, ...) @_ZN12outputStream8print_crEPKcz(ptr noundef nonnull align 8 dereferenceable(56) %35, ptr noundef @.str.66)
  %36 = load ptr, ptr %5, align 8
  call void (ptr, ptr, ...) @_ZN12outputStream8print_crEPKcz(ptr noundef nonnull align 8 dereferenceable(56) %36, ptr noundef @.str.67)
  %37 = load ptr, ptr %5, align 8
  call void (ptr, ptr, ...) @_ZN12outputStream8print_crEPKcz(ptr noundef nonnull align 8 dereferenceable(56) %37, ptr noundef @.str.68)
  %38 = load ptr, ptr %5, align 8
  call void (ptr, ptr, ...) @_ZN12outputStream8print_crEPKcz(ptr noundef nonnull align 8 dereferenceable(56) %38, ptr noundef @.str.45)
  %39 = load ptr, ptr %5, align 8
  call void (ptr, ptr, ...) @_ZN12outputStream8print_crEPKcz(ptr noundef nonnull align 8 dereferenceable(56) %39, ptr noundef @.str.69)
  %40 = load ptr, ptr %5, align 8
  call void (ptr, ptr, ...) @_ZN12outputStream8print_crEPKcz(ptr noundef nonnull align 8 dereferenceable(56) %40, ptr noundef @.str.70)
  %41 = load ptr, ptr %5, align 8
  call void (ptr, ptr, ...) @_ZN12outputStream8print_crEPKcz(ptr noundef nonnull align 8 dereferenceable(56) %41, ptr noundef @.str.71)
  %42 = load ptr, ptr %5, align 8
  call void (ptr, ptr, ...) @_ZN12outputStream8print_crEPKcz(ptr noundef nonnull align 8 dereferenceable(56) %42, ptr noundef @.str.45)
  %43 = load ptr, ptr %5, align 8
  call void (ptr, ptr, ...) @_ZN12outputStream8print_crEPKcz(ptr noundef nonnull align 8 dereferenceable(56) %43, ptr noundef @.str.72)
  %44 = load ptr, ptr %5, align 8
  call void (ptr, ptr, ...) @_ZN12outputStream8print_crEPKcz(ptr noundef nonnull align 8 dereferenceable(56) %44, ptr noundef @.str.73)
  %45 = load ptr, ptr %5, align 8
  call void (ptr, ptr, ...) @_ZN12outputStream8print_crEPKcz(ptr noundef nonnull align 8 dereferenceable(56) %45, ptr noundef @.str.74)
  %46 = load ptr, ptr %5, align 8
  call void (ptr, ptr, ...) @_ZN12outputStream8print_crEPKcz(ptr noundef nonnull align 8 dereferenceable(56) %46, ptr noundef @.str.75)
  %47 = load ptr, ptr %5, align 8
  call void (ptr, ptr, ...) @_ZN12outputStream8print_crEPKcz(ptr noundef nonnull align 8 dereferenceable(56) %47, ptr noundef @.str.45)
  %48 = load ptr, ptr %5, align 8
  call void (ptr, ptr, ...) @_ZN12outputStream8print_crEPKcz(ptr noundef nonnull align 8 dereferenceable(56) %48, ptr noundef @.str.76)
  %49 = load ptr, ptr %5, align 8
  call void (ptr, ptr, ...) @_ZN12outputStream8print_crEPKcz(ptr noundef nonnull align 8 dereferenceable(56) %49, ptr noundef @.str.77)
  %50 = load ptr, ptr %5, align 8
  call void (ptr, ptr, ...) @_ZN12outputStream8print_crEPKcz(ptr noundef nonnull align 8 dereferenceable(56) %50, ptr noundef @.str.78)
  %51 = load ptr, ptr %5, align 8
  call void (ptr, ptr, ...) @_ZN12outputStream8print_crEPKcz(ptr noundef nonnull align 8 dereferenceable(56) %51, ptr noundef @.str.79)
  %52 = load ptr, ptr %5, align 8
  call void (ptr, ptr, ...) @_ZN12outputStream8print_crEPKcz(ptr noundef nonnull align 8 dereferenceable(56) %52, ptr noundef @.str.80)
  %53 = load ptr, ptr %5, align 8
  call void (ptr, ptr, ...) @_ZN12outputStream8print_crEPKcz(ptr noundef nonnull align 8 dereferenceable(56) %53, ptr noundef @.str.45)
  %54 = load ptr, ptr %5, align 8
  call void (ptr, ptr, ...) @_ZN12outputStream8print_crEPKcz(ptr noundef nonnull align 8 dereferenceable(56) %54, ptr noundef @.str.81)
  %55 = load ptr, ptr %5, align 8
  call void (ptr, ptr, ...) @_ZN12outputStream8print_crEPKcz(ptr noundef nonnull align 8 dereferenceable(56) %55, ptr noundef @.str.82)
  %56 = load ptr, ptr %5, align 8
  call void (ptr, ptr, ...) @_ZN12outputStream8print_crEPKcz(ptr noundef nonnull align 8 dereferenceable(56) %56, ptr noundef @.str.45)
  %57 = load ptr, ptr %5, align 8
  call void (ptr, ptr, ...) @_ZN12outputStream8print_crEPKcz(ptr noundef nonnull align 8 dereferenceable(56) %57, ptr noundef @.str.83)
  %58 = load ptr, ptr %5, align 8
  call void (ptr, ptr, ...) @_ZN12outputStream8print_crEPKcz(ptr noundef nonnull align 8 dereferenceable(56) %58, ptr noundef @.str.45)
  %59 = load ptr, ptr %5, align 8
  call void (ptr, ptr, ...) @_ZN12outputStream8print_crEPKcz(ptr noundef nonnull align 8 dereferenceable(56) %59, ptr noundef @.str.84)
  %60 = load ptr, ptr %5, align 8
  call void (ptr, ptr, ...) @_ZN12outputStream8print_crEPKcz(ptr noundef nonnull align 8 dereferenceable(56) %60, ptr noundef @.str.45)
  %61 = load ptr, ptr %5, align 8
  call void (ptr, ptr, ...) @_ZN12outputStream8print_crEPKcz(ptr noundef nonnull align 8 dereferenceable(56) %61, ptr noundef @.str.85)
  %62 = load ptr, ptr %5, align 8
  call void (ptr, ptr, ...) @_ZN12outputStream8print_crEPKcz(ptr noundef nonnull align 8 dereferenceable(56) %62, ptr noundef @.str.86)
  %63 = load ptr, ptr %5, align 8
  call void (ptr, ptr, ...) @_ZN12outputStream8print_crEPKcz(ptr noundef nonnull align 8 dereferenceable(56) %63, ptr noundef @.str.87)
  %64 = load ptr, ptr %5, align 8
  call void (ptr, ptr, ...) @_ZN12outputStream8print_crEPKcz(ptr noundef nonnull align 8 dereferenceable(56) %64, ptr noundef @.str.88)
  %65 = load ptr, ptr %5, align 8
  call void (ptr, ptr, ...) @_ZN12outputStream8print_crEPKcz(ptr noundef nonnull align 8 dereferenceable(56) %65, ptr noundef @.str.45)
  ret void
}